; Function Attrs: nounwind uwtable
define hidden ptr @mpd_callocfunc_em(i64 noundef %0, i64 noundef %1) local_unnamed_addr #4 {
  %umul = tail call { i64, i1 } @llvm.umul.with.overflow.i64(i64 %1, i64 %0)
  %umul.value = extractvalue { i64, i1 } %umul, 0
  %3 = extractvalue { i64, i1 } %umul, 1
  br i1 %3, label %9, label %4

4:                                                ; preds = %2
  %5 = load ptr, ptr @mpd_mallocfunc, align 8, !tbaa !3
  %6 = tail call ptr %5(i64 noundef %umul.value) #9
  %7 = icmp eq ptr %6, null
  br i1 %7, label %9, label %8

8:                                                ; preds = %4
  tail call void @llvm.memset.p0.i64(ptr nonnull align 1 %6, i8 0, i64 %umul.value, i1 false)
  br label %9

9:                                                ; preds = %4, %2, %8
  %.0 = phi ptr [ %6, %8 ], [ null, %2 ], [ null, %4 ]
  ret ptr %.0
}